; Function Attrs: mustprogress nounwind uwtable
define internal fastcc noundef zeroext i1 @_ZN5clang19RecursiveASTVisitorIN12_GLOBAL__N_122EmptyStatementsRemoverEE43TraverseDependentTemplateSpecializationTypeEPNS_35DependentTemplateSpecializationTypeE(ptr noundef nonnull align 1 dereferenceable(1) %0, ptr noundef readonly %1) unnamed_addr #0 align 2 {
  %3 = getelementptr inbounds nuw i8, ptr %1, i64 32
  %4 = load ptr, ptr %3, align 16
  %5 = tail call fastcc noundef zeroext i1 @_ZN5clang19RecursiveASTVisitorIN12_GLOBAL__N_122EmptyStatementsRemoverEE27TraverseNestedNameSpecifierEPNS_19NestedNameSpecifierE(ptr noundef nonnull align 1 dereferenceable(1) %0, ptr noundef %4)
  br i1 %5, label %6, label %_ZN5clang19RecursiveASTVisitorIN12_GLOBAL__N_122EmptyStatementsRemoverEE25TraverseTemplateArgumentsEN4llvm8ArrayRefINS_16TemplateArgumentEEE.exit

6:                                                ; preds = %2
  %7 = getelementptr inbounds nuw i8, ptr %1, i64 20
  %8 = load i32, ptr %7, align 4
  %9 = zext i32 %8 to i64
  %.idx = mul nuw nsw i64 %9, 24
  %10 = getelementptr inbounds nuw i8, ptr %1, i64 %.idx
  %.ptr11 = getelementptr inbounds nuw i8, ptr %10, i64 48
  %.not.i7 = icmp eq i32 %8, 0
  br i1 %.not.i7, label %_ZN5clang19RecursiveASTVisitorIN12_GLOBAL__N_122EmptyStatementsRemoverEE25TraverseTemplateArgumentsEN4llvm8ArrayRefINS_16TemplateArgumentEEE.exit, label %.lr.ph.preheader

.lr.ph.preheader:                                 ; preds = %6
  %.ptr = getelementptr inbounds nuw i8, ptr %1, i64 48
  br label %.lr.ph

.lr.ph:                                           ; preds = %.lr.ph, %.lr.ph.preheader
  %.09.i8 = phi ptr [ %.ptr, %.lr.ph.preheader ], [ %12, %.lr.ph ]
  %11 = tail call fastcc noundef zeroext i1 @_ZN5clang19RecursiveASTVisitorIN12_GLOBAL__N_122EmptyStatementsRemoverEE24TraverseTemplateArgumentERKNS_16TemplateArgumentE(ptr noundef nonnull align 1 dereferenceable(1) %0, ptr noundef nonnull align 8 dereferenceable(24) %.09.i8)
  %12 = getelementptr inbounds nuw i8, ptr %.09.i8, i64 24
  %.not.i = icmp ne ptr %12, %.ptr11
  %or.cond.not = select i1 %11, i1 %.not.i, i1 false
  br i1 %or.cond.not, label %.lr.ph, label %_ZN5clang19RecursiveASTVisitorIN12_GLOBAL__N_122EmptyStatementsRemoverEE25TraverseTemplateArgumentsEN4llvm8ArrayRefINS_16TemplateArgumentEEE.exit

_ZN5clang19RecursiveASTVisitorIN12_GLOBAL__N_122EmptyStatementsRemoverEE25TraverseTemplateArgumentsEN4llvm8ArrayRefINS_16TemplateArgumentEEE.exit: ; preds = %.lr.ph, %6, %2
  %.0 = phi i1 [ false, %2 ], [ true, %6 ], [ %11, %.lr.ph ]
  ret i1 %.0
}